; Function Attrs: nounwind uwtable
define range(i32 -1, 2) i32 @Abc_NtkCollectSupergate_rec(ptr noundef %0, ptr noundef %1, i32 noundef %2, i32 noundef %3) local_unnamed_addr #0 {
  %5 = ptrtoint ptr %0 to i64
  %6 = and i64 %5, -2
  %7 = inttoptr i64 %6 to ptr
  %8 = getelementptr inbounds nuw i8, ptr %7, i64 20
  %9 = load i32, ptr %8, align 4
  %10 = and i32 %9, 32
  %.not = icmp eq i32 %10, 0
  br i1 %.not, label %30, label %.preheader49

.preheader49:                                     ; preds = %4
  %11 = getelementptr inbounds nuw i8, ptr %1, i64 4
  %12 = load i32, ptr %11, align 4
  %13 = icmp sgt i32 %12, 0
  br i1 %13, label %.lr.ph, label %.loopexit

.lr.ph:                                           ; preds = %.preheader49
  %14 = getelementptr inbounds nuw i8, ptr %1, i64 8
  %15 = load ptr, ptr %14, align 8
  %wide.trip.count = zext nneg i32 %12 to i64
  br label %21

16:                                               ; preds = %21
  %indvars.iv.next = add nuw nsw i64 %indvars.iv, 1
  %exitcond.not = icmp eq i64 %indvars.iv.next, %wide.trip.count
  br i1 %exitcond.not, label %.lr.ph54, label %21, !llvm.loop !13

.lr.ph54:                                         ; preds = %16
  %17 = getelementptr inbounds nuw i8, ptr %1, i64 8
  %18 = load ptr, ptr %17, align 8
  %19 = xor i64 %5, 1
  %20 = inttoptr i64 %19 to ptr
  %wide.trip.count63 = zext nneg i32 %12 to i64
  br label %26

21:                                               ; preds = %.lr.ph, %16
  %indvars.iv = phi i64 [ 0, %.lr.ph ], [ %indvars.iv.next, %16 ]
  %22 = getelementptr inbounds nuw ptr, ptr %15, i64 %indvars.iv
  %23 = load ptr, ptr %22, align 8
  %24 = icmp eq ptr %23, %0
  br i1 %24, label %.loopexit, label %16

25:                                               ; preds = %26
  %indvars.iv.next61 = add nuw nsw i64 %indvars.iv60, 1
  %exitcond64.not = icmp eq i64 %indvars.iv.next61, %wide.trip.count63
  br i1 %exitcond64.not, label %.loopexit, label %26, !llvm.loop !14

26:                                               ; preds = %.lr.ph54, %25
  %indvars.iv60 = phi i64 [ 0, %.lr.ph54 ], [ %indvars.iv.next61, %25 ]
  %27 = getelementptr inbounds nuw ptr, ptr %18, i64 %indvars.iv60
  %28 = load ptr, ptr %27, align 8
  %29 = icmp eq ptr %28, %20
  br i1 %29, label %.loopexit, label %25

30:                                               ; preds = %4
  %.not36 = icmp eq i32 %2, 0
  br i1 %.not36, label %31, label %76

31:                                               ; preds = %30
  %32 = and i64 %5, 1
  %.not37 = icmp eq i64 %32, 0
  br i1 %.not37, label %33, label %42

33:                                               ; preds = %31
  %34 = getelementptr i8, ptr %0, i64 20
  %.val = load i32, ptr %34, align 4
  %35 = and i32 %.val, 15
  %.not48 = icmp eq i32 %35, 7
  br i1 %.not48, label %36, label %42

36:                                               ; preds = %33
  %37 = getelementptr i8, ptr %0, i64 44
  %.val41 = load i32, ptr %37, align 4
  %38 = icmp sgt i32 %.val41, 1
  br i1 %38, label %42, label %39

39:                                               ; preds = %36
  %.not39 = icmp eq i32 %3, 0
  br i1 %.not39, label %76, label %40

40:                                               ; preds = %39
  %41 = tail call i32 @Abc_NodeIsMuxType(ptr noundef nonnull %0) #11
  %.not40 = icmp eq i32 %41, 0
  br i1 %.not40, label %76, label %42

42:                                               ; preds = %40, %36, %33, %31
  %43 = getelementptr inbounds nuw i8, ptr %1, i64 4
  %44 = load i32, ptr %43, align 4
  %45 = load i32, ptr %1, align 8
  %46 = icmp eq i32 %44, %45
  br i1 %46, label %47, label %.Vec_PtrGrow.exit11_crit_edge.i

.Vec_PtrGrow.exit11_crit_edge.i:                  ; preds = %42
  %.phi.trans.insert.i = getelementptr inbounds nuw i8, ptr %1, i64 8
  %.pre.i = load ptr, ptr %.phi.trans.insert.i, align 8
  br label %Vec_PtrPush.exit

47:                                               ; preds = %42
  %48 = icmp slt i32 %44, 16
  br i1 %48, label %49, label %57

49:                                               ; preds = %47
  %50 = getelementptr inbounds nuw i8, ptr %1, i64 8
  %51 = load ptr, ptr %50, align 8
  %.not9.i.i = icmp eq ptr %51, null
  br i1 %.not9.i.i, label %54, label %52

52:                                               ; preds = %49
  %53 = tail call dereferenceable_or_null(128) ptr @realloc(ptr noundef nonnull %51, i64 noundef 128) #13
  br label %Vec_PtrGrow.exit.i

54:                                               ; preds = %49
  %55 = tail call noalias dereferenceable_or_null(128) ptr @malloc(i64 noundef 128) #12
  br label %Vec_PtrGrow.exit.i

Vec_PtrGrow.exit.i:                               ; preds = %54, %52
  %56 = phi ptr [ %53, %52 ], [ %55, %54 ]
  store ptr %56, ptr %50, align 8
  store i32 16, ptr %1, align 8
  br label %Vec_PtrPush.exit

57:                                               ; preds = %47
  %58 = shl nuw nsw i32 %44, 1
  %59 = getelementptr inbounds nuw i8, ptr %1, i64 8
  %60 = load ptr, ptr %59, align 8
  %.not9.i10.i = icmp eq ptr %60, null
  %61 = zext nneg i32 %58 to i64
  %62 = shl nuw nsw i64 %61, 3
  br i1 %.not9.i10.i, label %65, label %63

63:                                               ; preds = %57
  %64 = tail call ptr @realloc(ptr noundef nonnull %60, i64 noundef %62) #13
  br label %67

65:                                               ; preds = %57
  %66 = tail call noalias ptr @malloc(i64 noundef %62) #12
  br label %67

67:                                               ; preds = %65, %63
  %68 = phi ptr [ %64, %63 ], [ %66, %65 ]
  store ptr %68, ptr %59, align 8
  store i32 %58, ptr %1, align 8
  br label %Vec_PtrPush.exit

Vec_PtrPush.exit:                                 ; preds = %.Vec_PtrGrow.exit11_crit_edge.i, %Vec_PtrGrow.exit.i, %67
  %69 = phi ptr [ %.pre.i, %.Vec_PtrGrow.exit11_crit_edge.i ], [ %68, %67 ], [ %56, %Vec_PtrGrow.exit.i ]
  %70 = load i32, ptr %43, align 4
  %71 = add nsw i32 %70, 1
  store i32 %71, ptr %43, align 4
  %72 = sext i32 %70 to i64
  %73 = getelementptr inbounds ptr, ptr %69, i64 %72
  store ptr %0, ptr %73, align 8
  %74 = load i32, ptr %8, align 4
  %75 = or i32 %74, 32
  store i32 %75, ptr %8, align 4
  br label %.loopexit

76:                                               ; preds = %39, %40, %30
  %.val.i = load ptr, ptr %0, align 8
  %77 = getelementptr i8, ptr %0, i64 32
  %.val2.i = load ptr, ptr %77, align 8
  %78 = getelementptr i8, ptr %.val.i, i64 32
  %.val.val.i = load ptr, ptr %78, align 8
  %.val2.val.i = load i32, ptr %.val2.i, align 4
  %79 = getelementptr i8, ptr %.val.val.i, i64 8
  %.val.val.val.i = load ptr, ptr %79, align 8
  %80 = sext i32 %.val2.val.i to i64
  %81 = getelementptr inbounds ptr, ptr %.val.val.val.i, i64 %80
  %82 = load ptr, ptr %81, align 8
  %83 = getelementptr i8, ptr %0, i64 20
  %.val3.i = load i32, ptr %83, align 4
  %84 = lshr i32 %.val3.i, 10
  %85 = and i32 %84, 1
  %86 = ptrtoint ptr %82 to i64
  %87 = zext nneg i32 %85 to i64
  %88 = xor i64 %87, %86
  %89 = inttoptr i64 %88 to ptr
  %90 = tail call i32 @Abc_NtkCollectSupergate_rec(ptr noundef %89, ptr noundef %1, i32 noundef 0, i32 noundef %3)
  %.val.i42 = load ptr, ptr %0, align 8
  %.val2.i43 = load ptr, ptr %77, align 8
  %91 = getelementptr i8, ptr %.val.i42, i64 32
  %.val.val.i44 = load ptr, ptr %91, align 8
  %92 = getelementptr i8, ptr %.val2.i43, i64 4
  %.val2.val.i45 = load i32, ptr %92, align 4
  %93 = getelementptr i8, ptr %.val.val.i44, i64 8
  %.val.val.val.i46 = load ptr, ptr %93, align 8
  %94 = sext i32 %.val2.val.i45 to i64
  %95 = getelementptr inbounds ptr, ptr %.val.val.val.i46, i64 %94
  %96 = load ptr, ptr %95, align 8
  %.val3.i47 = load i32, ptr %83, align 4
  %97 = lshr i32 %.val3.i47, 11
  %98 = and i32 %97, 1
  %99 = ptrtoint ptr %96 to i64
  %100 = zext nneg i32 %98 to i64
  %101 = xor i64 %100, %99
  %102 = inttoptr i64 %101 to ptr
  %103 = tail call i32 @Abc_NtkCollectSupergate_rec(ptr noundef %102, ptr noundef %1, i32 noundef 0, i32 noundef %3)
  %104 = icmp eq i32 %90, -1
  %105 = icmp eq i32 %103, -1
  %or.cond = select i1 %104, i1 true, i1 %105
  br i1 %or.cond, label %.loopexit, label %106

106:                                              ; preds = %76
  %107 = icmp ne i32 %90, 0
  %108 = icmp ne i32 %103, 0
  %109 = select i1 %107, i1 true, i1 %108
  %110 = zext i1 %109 to i32
  br label %.loopexit

.loopexit:                                        ; preds = %21, %26, %25, %.preheader49, %76, %106, %Vec_PtrPush.exit
  %.033 = phi i32 [ %110, %106 ], [ 0, %Vec_PtrPush.exit ], [ -1, %76 ], [ 0, %.preheader49 ], [ -1, %26 ], [ 0, %25 ], [ 1, %21 ]
  ret i32 %.033
}